; ModuleID = '39/1127.c'
source_filename = "39/1127.c"
target datalayout = "e-m:e-p270:32:32-p271:32:32-p272:64:64-i64:64-f80:128-n8:16:32:64-S128"
target triple = "x86_64-pc-linux-gnu"

@.str = private unnamed_addr constant [3 x i8] c"%d\00", align 1
@.str.1 = private unnamed_addr constant [19 x i8] c"%s %d %d %c %c %d\0A\00", align 1
@.str.2 = private unnamed_addr constant [9 x i8] c"%s\0A%d\0A%d\00", align 1

; Function Attrs: noinline nounwind uwtable
define dso_local i32 @main(i32 %0, i8** %1) #0 {
  %3 = alloca i32, align 4
  %4 = alloca i32, align 4
  %5 = alloca i8**, align 8
  %6 = alloca i32, align 4
  %7 = alloca i32, align 4
  %8 = alloca i32, align 4
  %9 = alloca i32, align 4
  %10 = alloca i32, align 4
  %11 = alloca [100 x i32], align 16
  %12 = alloca i32, align 4
  %13 = alloca i32, align 4
  %14 = alloca i32, align 4
  %15 = alloca [100 x [20 x i8]], align 16
  %16 = alloca i8, align 1
  %17 = alloca i8, align 1
  store i32 0, i32* %3, align 4
  store i32 %0, i32* %4, align 4
  store i8** %1, i8*** %5, align 8
  store i32 0, i32* %12, align 4
  store i32 0, i32* %13, align 4
  store i8 0, i8* %16, align 1
  store i8 0, i8* %17, align 1
  %18 = call i32 (i8*, ...) @__isoc99_scanf(i8* getelementptr inbounds ([3 x i8], [3 x i8]* @.str, i64 0, i64 0), i32* %6)
  store i32 0, i32* %10, align 4
  br label %19

19:                                               ; preds = %125, %2
  %20 = load i32, i32* %10, align 4
  %21 = load i32, i32* %6, align 4
  %22 = icmp slt i32 %20, %21
  br i1 %22, label %23, label %128

23:                                               ; preds = %19
  %24 = load i32, i32* %10, align 4
  %25 = sext i32 %24 to i64
  %26 = getelementptr inbounds [100 x i32], [100 x i32]* %11, i64 0, i64 %25
  store i32 0, i32* %26, align 4
  %27 = load i32, i32* %10, align 4
  %28 = sext i32 %27 to i64
  %29 = getelementptr inbounds [100 x [20 x i8]], [100 x [20 x i8]]* %15, i64 0, i64 %28
  %30 = getelementptr inbounds [20 x i8], [20 x i8]* %29, i64 0, i64 0
  %31 = call i32 (i8*, ...) @__isoc99_scanf(i8* getelementptr inbounds ([19 x i8], [19 x i8]* @.str.1, i64 0, i64 0), i8* %30, i32* %7, i32* %8, i8* %16, i8* %17, i32* %9)
  %32 = load i32, i32* %7, align 4
  %33 = icmp sgt i32 %32, 80
  br i1 %33, label %34, label %46

34:                                               ; preds = %23
  %35 = load i32, i32* %9, align 4
  %36 = icmp sge i32 %35, 1
  br i1 %36, label %37, label %46

37:                                               ; preds = %34
  %38 = load i32, i32* %10, align 4
  %39 = sext i32 %38 to i64
  %40 = getelementptr inbounds [100 x i32], [100 x i32]* %11, i64 0, i64 %39
  %41 = load i32, i32* %40, align 4
  %42 = add nsw i32 %41, 8000
  %43 = load i32, i32* %10, align 4
  %44 = sext i32 %43 to i64
  %45 = getelementptr inbounds [100 x i32], [100 x i32]* %11, i64 0, i64 %44
  store i32 %42, i32* %45, align 4
  br label %46

46:                                               ; preds = %37, %34, %23
  %47 = load i32, i32* %7, align 4
  %48 = icmp sgt i32 %47, 85
  br i1 %48, label %49, label %61

49:                                               ; preds = %46
  %50 = load i32, i32* %8, align 4
  %51 = icmp sgt i32 %50, 80
  br i1 %51, label %52, label %61

52:                                               ; preds = %49
  %53 = load i32, i32* %10, align 4
  %54 = sext i32 %53 to i64
  %55 = getelementptr inbounds [100 x i32], [100 x i32]* %11, i64 0, i64 %54
  %56 = load i32, i32* %55, align 4
  %57 = add nsw i32 %56, 4000
  %58 = load i32, i32* %10, align 4
  %59 = sext i32 %58 to i64
  %60 = getelementptr inbounds [100 x i32], [100 x i32]* %11, i64 0, i64 %59
  store i32 %57, i32* %60, align 4
  br label %61

61:                                               ; preds = %52, %49, %46
  %62 = load i32, i32* %7, align 4
  %63 = icmp sgt i32 %62, 90
  br i1 %63, label %64, label %73

64:                                               ; preds = %61
  %65 = load i32, i32* %10, align 4
  %66 = sext i32 %65 to i64
  %67 = getelementptr inbounds [100 x i32], [100 x i32]* %11, i64 0, i64 %66
  %68 = load i32, i32* %67, align 4
  %69 = add nsw i32 %68, 2000
  %70 = load i32, i32* %10, align 4
  %71 = sext i32 %70 to i64
  %72 = getelementptr inbounds [100 x i32], [100 x i32]* %11, i64 0, i64 %71
  store i32 %69, i32* %72, align 4
  br label %73

73:                                               ; preds = %64, %61
  %74 = load i32, i32* %7, align 4
  %75 = icmp sgt i32 %74, 85
  br i1 %75, label %76, label %89

76:                                               ; preds = %73
  %77 = load i8, i8* %17, align 1
  %78 = sext i8 %77 to i32
  %79 = icmp eq i32 %78, 89
  br i1 %79, label %80, label %89

80:                                               ; preds = %76
  %81 = load i32, i32* %10, align 4
  %82 = sext i32 %81 to i64
  %83 = getelementptr inbounds [100 x i32], [100 x i32]* %11, i64 0, i64 %82
  %84 = load i32, i32* %83, align 4
  %85 = add nsw i32 %84, 1000
  %86 = load i32, i32* %10, align 4
  %87 = sext i32 %86 to i64
  %88 = getelementptr inbounds [100 x i32], [100 x i32]* %11, i64 0, i64 %87
  store i32 %85, i32* %88, align 4
  br label %89

89:                                               ; preds = %80, %76, %73
  %90 = load i32, i32* %8, align 4
  %91 = icmp sgt i32 %90, 80
  br i1 %91, label %92, label %105

92:                                               ; preds = %89
  %93 = load i8, i8* %16, align 1
  %94 = sext i8 %93 to i32
  %95 = icmp eq i32 %94, 89
  br i1 %95, label %96, label %105

96:                                               ; preds = %92
  %97 = load i32, i32* %10, align 4
  %98 = sext i32 %97 to i64
  %99 = getelementptr inbounds [100 x i32], [100 x i32]* %11, i64 0, i64 %98
  %100 = load i32, i32* %99, align 4
  %101 = add nsw i32 %100, 850
  %102 = load i32, i32* %10, align 4
  %103 = sext i32 %102 to i64
  %104 = getelementptr inbounds [100 x i32], [100 x i32]* %11, i64 0, i64 %103
  store i32 %101, i32* %104, align 4
  br label %105

105:                                              ; preds = %96, %92, %89
  %106 = load i32, i32* %10, align 4
  %107 = sext i32 %106 to i64
  %108 = getelementptr inbounds [100 x i32], [100 x i32]* %11, i64 0, i64 %107
  %109 = load i32, i32* %108, align 4
  %110 = load i32, i32* %12, align 4
  %111 = icmp sgt i32 %109, %110
  br i1 %111, label %112, label %118

112:                                              ; preds = %105
  %113 = load i32, i32* %10, align 4
  %114 = sext i32 %113 to i64
  %115 = getelementptr inbounds [100 x i32], [100 x i32]* %11, i64 0, i64 %114
  %116 = load i32, i32* %115, align 4
  store i32 %116, i32* %12, align 4
  %117 = load i32, i32* %10, align 4
  store i32 %117, i32* %14, align 4
  br label %118

118:                                              ; preds = %112, %105
  %119 = load i32, i32* %13, align 4
  %120 = load i32, i32* %10, align 4
  %121 = sext i32 %120 to i64
  %122 = getelementptr inbounds [100 x i32], [100 x i32]* %11, i64 0, i64 %121
  %123 = load i32, i32* %122, align 4
  %124 = add nsw i32 %119, %123
  store i32 %124, i32* %13, align 4
  br label %125

125:                                              ; preds = %118
  %126 = load i32, i32* %10, align 4
  %127 = add nsw i32 %126, 1
  store i32 %127, i32* %10, align 4
  br label %19

128:                                              ; preds = %19
  %129 = load i32, i32* %14, align 4
  %130 = sext i32 %129 to i64
  %131 = getelementptr inbounds [100 x [20 x i8]], [100 x [20 x i8]]* %15, i64 0, i64 %130
  %132 = getelementptr inbounds [20 x i8], [20 x i8]* %131, i64 0, i64 0
  %133 = load i32, i32* %12, align 4
  %134 = load i32, i32* %13, align 4
  %135 = call i32 (i8*, ...) @printf(i8* getelementptr inbounds ([9 x i8], [9 x i8]* @.str.2, i64 0, i64 0), i8* %132, i32 %133, i32 %134)
  ret i32 0
}

declare dso_local i32 @__isoc99_scanf(i8*, ...) #1

declare dso_local i32 @printf(i8*, ...) #1


!llvm.module.flags = !{!0}
!llvm.ident = !{!1}

!0 = !{i32 1, !"wchar_size", i32 4}
!1 = !{!"clang version 10.0.0-4ubuntu1 "}
